target datalayout = "e-m:e-p270:32:32-p271:32:32-p272:64:64-i64:64-i128:128-f80:128-n8:16:32:64-S128"
target triple = "x86_64-pc-linux-gnu"

%struct.yyguts_t = type { ptr, ptr, ptr, i64, i64, ptr, i8, i32, i32, ptr, i32, i32, i32, i32, i32, ptr, i32, ptr, i32, i32, ptr, i32, i32 }
%struct.yy_buffer_state = type { ptr, ptr, ptr, i32, i32, i32, i32, i32, i32, i32, i32, i32 }

@.str.25 = private unnamed_addr constant [49 x i8] c"out of dynamic memory in yyensure_buffer_stack()\00", align 1

; Function Attrs: nounwind uwtable
define internal void @Radius__load_buffer_state(ptr noundef %0) #0 {
  %2 = alloca ptr, align 8
  %3 = alloca ptr, align 8
  store ptr %0, ptr %2, align 8
  %4 = load ptr, ptr %2, align 8
  store ptr %4, ptr %3, align 8
  %5 = load ptr, ptr %3, align 8
  %6 = getelementptr inbounds %struct.yyguts_t, ptr %5, i32 0, i32 5
  %7 = load ptr, ptr %6, align 8
  %8 = load ptr, ptr %3, align 8
  %9 = getelementptr inbounds %struct.yyguts_t, ptr %8, i32 0, i32 3
  %10 = load i64, ptr %9, align 8
  %11 = getelementptr ptr, ptr %7, i64 %10
  %12 = load ptr, ptr %11, align 8
  %13 = getelementptr inbounds %struct.yy_buffer_state, ptr %12, i32 0, i32 4
  %14 = load i32, ptr %13, align 4
  %15 = load ptr, ptr %3, align 8
  %16 = getelementptr inbounds %struct.yyguts_t, ptr %15, i32 0, i32 7
  store i32 %14, ptr %16, align 4
  %17 = load ptr, ptr %3, align 8
  %18 = getelementptr inbounds %struct.yyguts_t, ptr %17, i32 0, i32 5
  %19 = load ptr, ptr %18, align 8
  %20 = load ptr, ptr %3, align 8
  %21 = getelementptr inbounds %struct.yyguts_t, ptr %20, i32 0, i32 3
  %22 = load i64, ptr %21, align 8
  %23 = getelementptr ptr, ptr %19, i64 %22
  %24 = load ptr, ptr %23, align 8
  %25 = getelementptr inbounds %struct.yy_buffer_state, ptr %24, i32 0, i32 2
  %26 = load ptr, ptr %25, align 8
  %27 = load ptr, ptr %3, align 8
  %28 = getelementptr inbounds %struct.yyguts_t, ptr %27, i32 0, i32 9
  store ptr %26, ptr %28, align 8
  %29 = load ptr, ptr %3, align 8
  %30 = getelementptr inbounds %struct.yyguts_t, ptr %29, i32 0, i32 20
  store ptr %26, ptr %30, align 8
  %31 = load ptr, ptr %3, align 8
  %32 = getelementptr inbounds %struct.yyguts_t, ptr %31, i32 0, i32 5
  %33 = load ptr, ptr %32, align 8
  %34 = load ptr, ptr %3, align 8
  %35 = getelementptr inbounds %struct.yyguts_t, ptr %34, i32 0, i32 3
  %36 = load i64, ptr %35, align 8
  %37 = getelementptr ptr, ptr %33, i64 %36
  %38 = load ptr, ptr %37, align 8
  %39 = getelementptr inbounds %struct.yy_buffer_state, ptr %38, i32 0, i32 0
  %40 = load ptr, ptr %39, align 8
  %41 = load ptr, ptr %3, align 8
  %42 = getelementptr inbounds %struct.yyguts_t, ptr %41, i32 0, i32 1
  store ptr %40, ptr %42, align 8
  %43 = load ptr, ptr %3, align 8
  %44 = getelementptr inbounds %struct.yyguts_t, ptr %43, i32 0, i32 9
  %45 = load ptr, ptr %44, align 8
  %46 = load i8, ptr %45, align 1
  %47 = load ptr, ptr %3, align 8
  %48 = getelementptr inbounds %struct.yyguts_t, ptr %47, i32 0, i32 6
  store i8 %46, ptr %48, align 8
  ret void
}

; Function Attrs: nounwind uwtable
define internal void @Radius_ensure_buffer_stack(ptr noundef %0) #0 {
  %2 = alloca ptr, align 8
  %3 = alloca i64, align 8
  %4 = alloca ptr, align 8
  %5 = alloca i64, align 8
  store ptr %0, ptr %2, align 8
  %6 = load ptr, ptr %2, align 8
  store ptr %6, ptr %4, align 8
  %7 = load ptr, ptr %4, align 8
  %8 = getelementptr inbounds %struct.yyguts_t, ptr %7, i32 0, i32 5
  %9 = load ptr, ptr %8, align 8
  %10 = icmp ne ptr %9, null
  br i1 %10, label %34, label %11

11:                                               ; preds = %1
  store i64 1, ptr %3, align 8
  %12 = load i64, ptr %3, align 8
  %13 = mul i64 %12, 8
  %14 = call noalias ptr @malloc(i64 noundef %13) #16
  %15 = load ptr, ptr %4, align 8
  %16 = getelementptr inbounds %struct.yyguts_t, ptr %15, i32 0, i32 5
  store ptr %14, ptr %16, align 8
  %17 = load ptr, ptr %4, align 8
  %18 = getelementptr inbounds %struct.yyguts_t, ptr %17, i32 0, i32 5
  %19 = load ptr, ptr %18, align 8
  %20 = icmp ne ptr %19, null
  br i1 %20, label %23, label %21

21:                                               ; preds = %11
  %22 = load ptr, ptr %2, align 8
  call void @yy_fatal_error(ptr noundef @.str.25, ptr noundef %22) #15
  unreachable

23:                                               ; preds = %11
  %24 = load ptr, ptr %4, align 8
  %25 = getelementptr inbounds %struct.yyguts_t, ptr %24, i32 0, i32 5
  %26 = load ptr, ptr %25, align 8
  %27 = load i64, ptr %3, align 8
  %28 = mul i64 %27, 8
  call void @llvm.memset.p0.i64(ptr align 8 %26, i8 0, i64 %28, i1 false)
  %29 = load i64, ptr %3, align 8
  %30 = load ptr, ptr %4, align 8
  %31 = getelementptr inbounds %struct.yyguts_t, ptr %30, i32 0, i32 4
  store i64 %29, ptr %31, align 8
  %32 = load ptr, ptr %4, align 8
  %33 = getelementptr inbounds %struct.yyguts_t, ptr %32, i32 0, i32 3
  store i64 0, ptr %33, align 8
  br label %76

34:                                               ; preds = %1
  %35 = load ptr, ptr %4, align 8
  %36 = getelementptr inbounds %struct.yyguts_t, ptr %35, i32 0, i32 3
  %37 = load i64, ptr %36, align 8
  %38 = load ptr, ptr %4, align 8
  %39 = getelementptr inbounds %struct.yyguts_t, ptr %38, i32 0, i32 4
  %40 = load i64, ptr %39, align 8
  %41 = sub i64 %40, 1
  %42 = icmp uge i64 %37, %41
  br i1 %42, label %43, label %76

43:                                               ; preds = %34
  store i64 8, ptr %5, align 8
  %44 = load ptr, ptr %4, align 8
  %45 = getelementptr inbounds %struct.yyguts_t, ptr %44, i32 0, i32 4
  %46 = load i64, ptr %45, align 8
  %47 = load i64, ptr %5, align 8
  %48 = add i64 %46, %47
  store i64 %48, ptr %3, align 8
  %49 = load ptr, ptr %4, align 8
  %50 = getelementptr inbounds %struct.yyguts_t, ptr %49, i32 0, i32 5
  %51 = load ptr, ptr %50, align 8
  %52 = load i64, ptr %3, align 8
  %53 = mul i64 %52, 8
  %54 = call ptr @realloc(ptr noundef %51, i64 noundef %53) #17
  %55 = load ptr, ptr %4, align 8
  %56 = getelementptr inbounds %struct.yyguts_t, ptr %55, i32 0, i32 5
  store ptr %54, ptr %56, align 8
  %57 = load ptr, ptr %4, align 8
  %58 = getelementptr inbounds %struct.yyguts_t, ptr %57, i32 0, i32 5
  %59 = load ptr, ptr %58, align 8
  %60 = icmp ne ptr %59, null
  br i1 %60, label %63, label %61

61:                                               ; preds = %43
  %62 = load ptr, ptr %2, align 8
  call void @yy_fatal_error(ptr noundef @.str.25, ptr noundef %62) #15
  unreachable

63:                                               ; preds = %43
  %64 = load ptr, ptr %4, align 8
  %65 = getelementptr inbounds %struct.yyguts_t, ptr %64, i32 0, i32 5
  %66 = load ptr, ptr %65, align 8
  %67 = load ptr, ptr %4, align 8
  %68 = getelementptr inbounds %struct.yyguts_t, ptr %67, i32 0, i32 4
  %69 = load i64, ptr %68, align 8
  %70 = getelementptr ptr, ptr %66, i64 %69
  %71 = load i64, ptr %5, align 8
  %72 = mul i64 %71, 8
  call void @llvm.memset.p0.i64(ptr align 8 %70, i8 0, i64 %72, i1 false)
  %73 = load i64, ptr %3, align 8
  %74 = load ptr, ptr %4, align 8
  %75 = getelementptr inbounds %struct.yyguts_t, ptr %74, i32 0, i32 4
  store i64 %73, ptr %75, align 8
  br label %76

76:                                               ; preds = %63, %34, %23
  ret void
}

; Function Attrs: nounwind uwtable
define hidden void @Radius_push_buffer_state(ptr noundef %0, ptr noundef %1) #0 {
  %3 = alloca ptr, align 8
  %4 = alloca ptr, align 8
  %5 = alloca ptr, align 8
  store ptr %0, ptr %3, align 8
  store ptr %1, ptr %4, align 8
  %6 = load ptr, ptr %4, align 8
  store ptr %6, ptr %5, align 8
  %7 = load ptr, ptr %3, align 8
  %8 = icmp eq ptr %7, null
  br i1 %8, label %9, label %10

9:                                                ; preds = %2
  br label %91

10:                                               ; preds = %2
  %11 = load ptr, ptr %4, align 8
  call void @Radius_ensure_buffer_stack(ptr noundef %11)
  %12 = load ptr, ptr %5, align 8
  %13 = getelementptr inbounds %struct.yyguts_t, ptr %12, i32 0, i32 5
  %14 = load ptr, ptr %13, align 8
  %15 = icmp ne ptr %14, null
  br i1 %15, label %16, label %26

16:                                               ; preds = %10
  %17 = load ptr, ptr %5, align 8
  %18 = getelementptr inbounds %struct.yyguts_t, ptr %17, i32 0, i32 5
  %19 = load ptr, ptr %18, align 8
  %20 = load ptr, ptr %5, align 8
  %21 = getelementptr inbounds %struct.yyguts_t, ptr %20, i32 0, i32 3
  %22 = load i64, ptr %21, align 8
  %23 = getelementptr ptr, ptr %19, i64 %22
  %24 = load ptr, ptr %23, align 8
  %25 = icmp ne ptr %24, null
  br i1 %25, label %27, label %58

26:                                               ; preds = %10
  br i1 false, label %27, label %58

27:                                               ; preds = %26, %16
  %28 = load ptr, ptr %5, align 8
  %29 = getelementptr inbounds %struct.yyguts_t, ptr %28, i32 0, i32 6
  %30 = load i8, ptr %29, align 8
  %31 = load ptr, ptr %5, align 8
  %32 = getelementptr inbounds %struct.yyguts_t, ptr %31, i32 0, i32 9
  %33 = load ptr, ptr %32, align 8
  store i8 %30, ptr %33, align 1
  %34 = load ptr, ptr %5, align 8
  %35 = getelementptr inbounds %struct.yyguts_t, ptr %34, i32 0, i32 9
  %36 = load ptr, ptr %35, align 8
  %37 = load ptr, ptr %5, align 8
  %38 = getelementptr inbounds %struct.yyguts_t, ptr %37, i32 0, i32 5
  %39 = load ptr, ptr %38, align 8
  %40 = load ptr, ptr %5, align 8
  %41 = getelementptr inbounds %struct.yyguts_t, ptr %40, i32 0, i32 3
  %42 = load i64, ptr %41, align 8
  %43 = getelementptr ptr, ptr %39, i64 %42
  %44 = load ptr, ptr %43, align 8
  %45 = getelementptr inbounds %struct.yy_buffer_state, ptr %44, i32 0, i32 2
  store ptr %36, ptr %45, align 8
  %46 = load ptr, ptr %5, align 8
  %47 = getelementptr inbounds %struct.yyguts_t, ptr %46, i32 0, i32 7
  %48 = load i32, ptr %47, align 4
  %49 = load ptr, ptr %5, align 8
  %50 = getelementptr inbounds %struct.yyguts_t, ptr %49, i32 0, i32 5
  %51 = load ptr, ptr %50, align 8
  %52 = load ptr, ptr %5, align 8
  %53 = getelementptr inbounds %struct.yyguts_t, ptr %52, i32 0, i32 3
  %54 = load i64, ptr %53, align 8
  %55 = getelementptr ptr, ptr %51, i64 %54
  %56 = load ptr, ptr %55, align 8
  %57 = getelementptr inbounds %struct.yy_buffer_state, ptr %56, i32 0, i32 4
  store i32 %48, ptr %57, align 4
  br label %58

58:                                               ; preds = %27, %26, %16
  %59 = load ptr, ptr %5, align 8
  %60 = getelementptr inbounds %struct.yyguts_t, ptr %59, i32 0, i32 5
  %61 = load ptr, ptr %60, align 8
  %62 = icmp ne ptr %61, null
  br i1 %62, label %63, label %73

63:                                               ; preds = %58
  %64 = load ptr, ptr %5, align 8
  %65 = getelementptr inbounds %struct.yyguts_t, ptr %64, i32 0, i32 5
  %66 = load ptr, ptr %65, align 8
  %67 = load ptr, ptr %5, align 8
  %68 = getelementptr inbounds %struct.yyguts_t, ptr %67, i32 0, i32 3
  %69 = load i64, ptr %68, align 8
  %70 = getelementptr ptr, ptr %66, i64 %69
  %71 = load ptr, ptr %70, align 8
  %72 = icmp ne ptr %71, null
  br i1 %72, label %74, label %79

73:                                               ; preds = %58
  br i1 false, label %74, label %79

74:                                               ; preds = %73, %63
  %75 = load ptr, ptr %5, align 8
  %76 = getelementptr inbounds %struct.yyguts_t, ptr %75, i32 0, i32 3
  %77 = load i64, ptr %76, align 8
  %78 = add i64 %77, 1
  store i64 %78, ptr %76, align 8
  br label %79

79:                                               ; preds = %74, %73, %63
  %80 = load ptr, ptr %3, align 8
  %81 = load ptr, ptr %5, align 8
  %82 = getelementptr inbounds %struct.yyguts_t, ptr %81, i32 0, i32 5
  %83 = load ptr, ptr %82, align 8
  %84 = load ptr, ptr %5, align 8
  %85 = getelementptr inbounds %struct.yyguts_t, ptr %84, i32 0, i32 3
  %86 = load i64, ptr %85, align 8
  %87 = getelementptr ptr, ptr %83, i64 %86
  store ptr %80, ptr %87, align 8
  %88 = load ptr, ptr %4, align 8
  call void @Radius__load_buffer_state(ptr noundef %88)
  %89 = load ptr, ptr %5, align 8
  %90 = getelementptr inbounds %struct.yyguts_t, ptr %89, i32 0, i32 12
  store i32 1, ptr %90, align 8
  br label %91

91:                                               ; preds = %79, %9
  ret void
}